; ModuleID = 'source-C-CXX/30/1504.c'
source_filename = "source-C-CXX/30/1504.c"
target datalayout = "e-m:e-p270:32:32-p271:32:32-p272:64:64-i64:64-f80:128-n8:16:32:64-S128"
target triple = "x86_64-pc-linux-gnu"

%struct.student = type { %struct.student*, [20 x i8], [20 x i8], [2 x i8], i32, float, [40 x i8] }

@.str = private unnamed_addr constant [3 x i8] c"%s\00", align 1
@.str.1 = private unnamed_addr constant [4 x i8] c"end\00", align 1
@.str.2 = private unnamed_addr constant [11 x i8] c"%s%s%d%f%s\00", align 1
@.str.3 = private unnamed_addr constant [5 x i8] c"%s%s\00", align 1
@.str.4 = private unnamed_addr constant [7 x i8] c"%d%f%s\00", align 1
@.str.5 = private unnamed_addr constant [19 x i8] c"%s %s %s %d %g %s\0A\00", align 1

; Function Attrs: nofree nounwind sspstrong uwtable
define dso_local %struct.student* @creat() local_unnamed_addr #0 {
  %1 = tail call noalias align 16 dereferenceable_or_null(100) i8* @malloc(i64 100) #4
  %2 = bitcast i8* %1 to %struct.student*
  %3 = getelementptr inbounds %struct.student, %struct.student* %2, i64 0, i32 1, i64 0
  %4 = tail call i32 (i8*, ...) @__isoc99_scanf(i8* getelementptr inbounds ([3 x i8], [3 x i8]* @.str, i64 0, i64 0), i8* nonnull %3)
  %5 = tail call i32 @strcmp(i8* noundef nonnull %3, i8* noundef nonnull dereferenceable(4) getelementptr inbounds ([4 x i8], [4 x i8]* @.str.1, i64 0, i64 0)) #5
  %6 = icmp eq i32 %5, 0
  br i1 %6, label %38, label %7

7:                                                ; preds = %0
  %8 = getelementptr inbounds %struct.student, %struct.student* %2, i64 0, i32 2, i64 0
  %9 = getelementptr inbounds %struct.student, %struct.student* %2, i64 0, i32 3, i64 0
  %10 = getelementptr inbounds %struct.student, %struct.student* %2, i64 0, i32 4
  %11 = getelementptr inbounds %struct.student, %struct.student* %2, i64 0, i32 5
  %12 = getelementptr inbounds %struct.student, %struct.student* %2, i64 0, i32 6, i64 0
  %13 = tail call i32 (i8*, ...) @__isoc99_scanf(i8* getelementptr inbounds ([11 x i8], [11 x i8]* @.str.2, i64 0, i64 0), i8* nonnull %8, i8* nonnull %9, i32* nonnull %10, float* nonnull %11, i8* nonnull %12)
  %14 = getelementptr inbounds %struct.student, %struct.student* %2, i64 0, i32 0
  store %struct.student* null, %struct.student** %14, align 16, !tbaa !5
  %15 = tail call noalias align 16 dereferenceable_or_null(100) i8* @malloc(i64 100) #4
  %16 = bitcast i8* %15 to %struct.student*
  %17 = getelementptr inbounds %struct.student, %struct.student* %16, i64 0, i32 1, i64 0
  %18 = tail call i32 (i8*, ...) @__isoc99_scanf(i8* getelementptr inbounds ([3 x i8], [3 x i8]* @.str, i64 0, i64 0), i8* nonnull %17)
  %19 = tail call i32 @strcmp(i8* noundef nonnull %17, i8* noundef nonnull dereferenceable(4) getelementptr inbounds ([4 x i8], [4 x i8]* @.str.1, i64 0, i64 0)) #5
  %20 = icmp eq i32 %19, 0
  br i1 %20, label %38, label %21

21:                                               ; preds = %7, %21
  %22 = phi %struct.student* [ %23, %21 ], [ %2, %7 ]
  %23 = phi %struct.student* [ %33, %21 ], [ %16, %7 ]
  %24 = getelementptr inbounds %struct.student, %struct.student* %23, i64 0, i32 2, i64 0
  %25 = getelementptr inbounds %struct.student, %struct.student* %23, i64 0, i32 3, i64 0
  %26 = tail call i32 (i8*, ...) @__isoc99_scanf(i8* getelementptr inbounds ([5 x i8], [5 x i8]* @.str.3, i64 0, i64 0), i8* nonnull %24, i8* nonnull %25)
  %27 = getelementptr inbounds %struct.student, %struct.student* %23, i64 0, i32 4
  %28 = getelementptr inbounds %struct.student, %struct.student* %23, i64 0, i32 5
  %29 = getelementptr inbounds %struct.student, %struct.student* %23, i64 0, i32 6, i64 0
  %30 = tail call i32 (i8*, ...) @__isoc99_scanf(i8* getelementptr inbounds ([7 x i8], [7 x i8]* @.str.4, i64 0, i64 0), i32* nonnull %27, float* nonnull %28, i8* nonnull %29)
  %31 = getelementptr inbounds %struct.student, %struct.student* %23, i64 0, i32 0
  store %struct.student* %22, %struct.student** %31, align 8, !tbaa !5
  %32 = tail call noalias align 16 dereferenceable_or_null(100) i8* @malloc(i64 100) #4
  %33 = bitcast i8* %32 to %struct.student*
  %34 = getelementptr inbounds %struct.student, %struct.student* %33, i64 0, i32 1, i64 0
  %35 = tail call i32 (i8*, ...) @__isoc99_scanf(i8* getelementptr inbounds ([3 x i8], [3 x i8]* @.str, i64 0, i64 0), i8* nonnull %34)
  %36 = tail call i32 @strcmp(i8* noundef nonnull %34, i8* noundef nonnull dereferenceable(4) getelementptr inbounds ([4 x i8], [4 x i8]* @.str.1, i64 0, i64 0)) #5
  %37 = icmp eq i32 %36, 0
  br i1 %37, label %38, label %21, !llvm.loop !12

38:                                               ; preds = %21, %7, %0
  %39 = phi %struct.student* [ null, %0 ], [ %2, %7 ], [ %23, %21 ]
  ret %struct.student* %39
}

; Function Attrs: inaccessiblememonly mustprogress nofree nounwind willreturn
declare noalias noundef align 16 i8* @malloc(i64 noundef) local_unnamed_addr #1

; Function Attrs: nofree nounwind
declare noundef i32 @__isoc99_scanf(i8* nocapture noundef readonly, ...) local_unnamed_addr #2

; Function Attrs: argmemonly mustprogress nofree nounwind readonly willreturn
declare i32 @strcmp(i8* nocapture, i8* nocapture) local_unnamed_addr #3

; Function Attrs: nofree nounwind sspstrong uwtable
define dso_local void @print(%struct.student* %0) local_unnamed_addr #0 {
  %2 = icmp eq %struct.student* %0, null
  br i1 %2, label %18, label %3

3:                                                ; preds = %1, %3
  %4 = phi %struct.student* [ %16, %3 ], [ %0, %1 ]
  %5 = getelementptr inbounds %struct.student, %struct.student* %4, i64 0, i32 1, i64 0
  %6 = getelementptr inbounds %struct.student, %struct.student* %4, i64 0, i32 2, i64 0
  %7 = getelementptr inbounds %struct.student, %struct.student* %4, i64 0, i32 3, i64 0
  %8 = getelementptr inbounds %struct.student, %struct.student* %4, i64 0, i32 4
  %9 = load i32, i32* %8, align 4, !tbaa !14
  %10 = getelementptr inbounds %struct.student, %struct.student* %4, i64 0, i32 5
  %11 = load float, float* %10, align 8, !tbaa !15
  %12 = fpext float %11 to double
  %13 = getelementptr inbounds %struct.student, %struct.student* %4, i64 0, i32 6, i64 0
  %14 = tail call i32 (i8*, ...) @printf(i8* nonnull dereferenceable(1) getelementptr inbounds ([19 x i8], [19 x i8]* @.str.5, i64 0, i64 0), i8* nonnull %5, i8* nonnull %6, i8* nonnull %7, i32 %9, double %12, i8* nonnull %13)
  %15 = getelementptr inbounds %struct.student, %struct.student* %4, i64 0, i32 0
  %16 = load %struct.student*, %struct.student** %15, align 8, !tbaa !5
  %17 = icmp eq %struct.student* %16, null
  br i1 %17, label %18, label %3, !llvm.loop !16

18:                                               ; preds = %3, %1
  ret void
}

; Function Attrs: nofree nounwind
declare noundef i32 @printf(i8* nocapture noundef readonly, ...) local_unnamed_addr #2

; Function Attrs: nofree nounwind sspstrong uwtable
define dso_local i32 @main() local_unnamed_addr #0 {
  %1 = tail call %struct.student* @creat()
  %2 = icmp eq %struct.student* %1, null
  br i1 %2, label %18, label %3

3:                                                ; preds = %0, %3
  %4 = phi %struct.student* [ %16, %3 ], [ %1, %0 ]
  %5 = getelementptr inbounds %struct.student, %struct.student* %4, i64 0, i32 1, i64 0
  %6 = getelementptr inbounds %struct.student, %struct.student* %4, i64 0, i32 2, i64 0
  %7 = getelementptr inbounds %struct.student, %struct.student* %4, i64 0, i32 3, i64 0
  %8 = getelementptr inbounds %struct.student, %struct.student* %4, i64 0, i32 4
  %9 = load i32, i32* %8, align 4, !tbaa !14
  %10 = getelementptr inbounds %struct.student, %struct.student* %4, i64 0, i32 5
  %11 = load float, float* %10, align 8, !tbaa !15
  %12 = fpext float %11 to double
  %13 = getelementptr inbounds %struct.student, %struct.student* %4, i64 0, i32 6, i64 0
  %14 = tail call i32 (i8*, ...) @printf(i8* nonnull dereferenceable(1) getelementptr inbounds ([19 x i8], [19 x i8]* @.str.5, i64 0, i64 0), i8* nonnull %5, i8* nonnull %6, i8* nonnull %7, i32 %9, double %12, i8* nonnull %13) #4
  %15 = getelementptr inbounds %struct.student, %struct.student* %4, i64 0, i32 0
  %16 = load %struct.student*, %struct.student** %15, align 8, !tbaa !5
  %17 = icmp eq %struct.student* %16, null
  br i1 %17, label %18, label %3, !llvm.loop !16

18:                                               ; preds = %3, %0
  ret i32 0
}


!llvm.module.flags = !{!0, !1, !2, !3}
!llvm.ident = !{!4}

!0 = !{i32 1, !"wchar_size", i32 4}
!1 = !{i32 7, !"PIC Level", i32 2}
!2 = !{i32 7, !"PIE Level", i32 2}
!3 = !{i32 7, !"uwtable", i32 1}
!4 = !{!"clang version 13.0.0"}
!5 = !{!6, !7, i64 0}
!6 = !{!"student", !7, i64 0, !8, i64 8, !8, i64 28, !8, i64 48, !10, i64 52, !11, i64 56, !8, i64 60}
!7 = !{!"any pointer", !8, i64 0}
!8 = !{!"omnipotent char", !9, i64 0}
!9 = !{!"Simple C/C++ TBAA"}
!10 = !{!"int", !8, i64 0}
!11 = !{!"float", !8, i64 0}
!12 = distinct !{!12, !13}
!13 = !{!"llvm.loop.mustprogress"}
!14 = !{!6, !10, i64 52}
!15 = !{!6, !11, i64 56}
!16 = distinct !{!16, !13}
